target datalayout = "e-m:e-p270:32:32-p271:32:32-p272:64:64-i64:64-i128:128-f80:128-n8:16:32:64-S128"
target triple = "x86_64-pc-linux-gnu"

%struct.anon = type { [5 x [5 x ptr]], [5 x [5 x ptr]], ptr, ptr, ptr, ptr, ptr, double, double, double, double, double, double, i32, i32, i32, i32 }
%struct._generic_N_Vector = type { ptr, ptr, ptr }
%struct._N_VectorContent_Serial = type { i64, i32, ptr }

; Function Attrs: nounwind uwtable
define internal double @DotProd(i32 noundef %0, ptr noundef %1, ptr noundef %2) #0 {
  %4 = alloca i32, align 4
  %5 = alloca ptr, align 8
  %6 = alloca ptr, align 8
  %7 = alloca i32, align 4
  %8 = alloca ptr, align 8
  %9 = alloca ptr, align 8
  %10 = alloca double, align 8
  store i32 %0, ptr %4, align 4, !tbaa !14
  store ptr %1, ptr %5, align 8, !tbaa !45
  store ptr %2, ptr %6, align 8, !tbaa !45
  call void @llvm.lifetime.start.p0(i64 4, ptr %7) #6
  call void @llvm.lifetime.start.p0(i64 8, ptr %8) #6
  call void @llvm.lifetime.start.p0(i64 8, ptr %9) #6
  call void @llvm.lifetime.start.p0(i64 8, ptr %10) #6
  store double 0.000000e+00, ptr %10, align 8, !tbaa !21
  %11 = load ptr, ptr %5, align 8, !tbaa !45
  store ptr %11, ptr %8, align 8, !tbaa !45
  %12 = load ptr, ptr %6, align 8, !tbaa !45
  store ptr %12, ptr %9, align 8, !tbaa !45
  store i32 0, ptr %7, align 4, !tbaa !14
  br label %13

13:                                               ; preds = %26, %3
  %14 = load i32, ptr %7, align 4, !tbaa !14
  %15 = load i32, ptr %4, align 4, !tbaa !14
  %16 = icmp slt i32 %14, %15
  br i1 %16, label %17, label %29

17:                                               ; preds = %13
  %18 = load ptr, ptr %8, align 8, !tbaa !45
  %19 = getelementptr inbounds nuw double, ptr %18, i32 1
  store ptr %19, ptr %8, align 8, !tbaa !45
  %20 = load double, ptr %18, align 8, !tbaa !21
  %21 = load ptr, ptr %9, align 8, !tbaa !45
  %22 = getelementptr inbounds nuw double, ptr %21, i32 1
  store ptr %22, ptr %9, align 8, !tbaa !45
  %23 = load double, ptr %21, align 8, !tbaa !21
  %24 = load double, ptr %10, align 8, !tbaa !21
  %25 = call double @llvm.fmuladd.f64(double %20, double %23, double %24)
  store double %25, ptr %10, align 8, !tbaa !21
  br label %26

26:                                               ; preds = %17
  %27 = load i32, ptr %7, align 4, !tbaa !14
  %28 = add nsw i32 %27, 1
  store i32 %28, ptr %7, align 4, !tbaa !14
  br label %13

29:                                               ; preds = %13
  %30 = load double, ptr %10, align 8, !tbaa !21
  call void @llvm.lifetime.end.p0(i64 8, ptr %10) #6
  call void @llvm.lifetime.end.p0(i64 8, ptr %9) #6
  call void @llvm.lifetime.end.p0(i64 8, ptr %8) #6
  call void @llvm.lifetime.end.p0(i64 4, ptr %7) #6
  ret double %30
}

; Function Attrs: nounwind uwtable
define internal void @WebRate(double noundef %0, double noundef %1, ptr noundef %2, ptr noundef %3, ptr noundef %4) #0 {
  %6 = alloca double, align 8
  %7 = alloca double, align 8
  %8 = alloca ptr, align 8
  %9 = alloca ptr, align 8
  %10 = alloca ptr, align 8
  %11 = alloca i32, align 4
  %12 = alloca double, align 8
  %13 = alloca ptr, align 8
  store double %0, ptr %6, align 8, !tbaa !21
  store double %1, ptr %7, align 8, !tbaa !21
  store ptr %2, ptr %8, align 8, !tbaa !45
  store ptr %3, ptr %9, align 8, !tbaa !45
  store ptr %4, ptr %10, align 8, !tbaa !11
  call void @llvm.lifetime.start.p0(i64 4, ptr %11) #6
  call void @llvm.lifetime.start.p0(i64 8, ptr %12) #6
  call void @llvm.lifetime.start.p0(i64 8, ptr %13) #6
  %14 = load ptr, ptr %10, align 8, !tbaa !11
  store ptr %14, ptr %13, align 8, !tbaa !11
  store i32 0, ptr %11, align 4, !tbaa !14
  br label %15

15:                                               ; preds = %32, %5
  %16 = load i32, ptr %11, align 4, !tbaa !14
  %17 = icmp slt i32 %16, 6
  br i1 %17, label %18, label %35

18:                                               ; preds = %15
  %19 = load ptr, ptr %8, align 8, !tbaa !45
  %20 = load ptr, ptr %13, align 8, !tbaa !11
  %21 = getelementptr inbounds nuw %struct.anon, ptr %20, i32 0, i32 2
  %22 = load ptr, ptr %21, align 8, !tbaa !25
  %23 = load i32, ptr %11, align 4, !tbaa !14
  %24 = sext i32 %23 to i64
  %25 = getelementptr inbounds ptr, ptr %22, i64 %24
  %26 = load ptr, ptr %25, align 8, !tbaa !45
  %27 = call double @DotProd(i32 noundef 6, ptr noundef %19, ptr noundef %26)
  %28 = load ptr, ptr %9, align 8, !tbaa !45
  %29 = load i32, ptr %11, align 4, !tbaa !14
  %30 = sext i32 %29 to i64
  %31 = getelementptr inbounds double, ptr %28, i64 %30
  store double %27, ptr %31, align 8, !tbaa !21
  br label %32

32:                                               ; preds = %18
  %33 = load i32, ptr %11, align 4, !tbaa !14
  %34 = add nsw i32 %33, 1
  store i32 %34, ptr %11, align 4, !tbaa !14
  br label %15

35:                                               ; preds = %15
  %36 = load double, ptr %6, align 8, !tbaa !21
  %37 = fmul double 1.000000e+00, %36
  %38 = load double, ptr %7, align 8, !tbaa !21
  %39 = call double @llvm.fmuladd.f64(double %37, double %38, double 1.000000e+00)
  store double %39, ptr %12, align 8, !tbaa !21
  store i32 0, ptr %11, align 4, !tbaa !14
  br label %40

40:                                               ; preds = %68, %35
  %41 = load i32, ptr %11, align 4, !tbaa !14
  %42 = icmp slt i32 %41, 6
  br i1 %42, label %43, label %71

43:                                               ; preds = %40
  %44 = load ptr, ptr %8, align 8, !tbaa !45
  %45 = load i32, ptr %11, align 4, !tbaa !14
  %46 = sext i32 %45 to i64
  %47 = getelementptr inbounds double, ptr %44, i64 %46
  %48 = load double, ptr %47, align 8, !tbaa !21
  %49 = load ptr, ptr %13, align 8, !tbaa !11
  %50 = getelementptr inbounds nuw %struct.anon, ptr %49, i32 0, i32 3
  %51 = load ptr, ptr %50, align 8, !tbaa !26
  %52 = load i32, ptr %11, align 4, !tbaa !14
  %53 = sext i32 %52 to i64
  %54 = getelementptr inbounds double, ptr %51, i64 %53
  %55 = load double, ptr %54, align 8, !tbaa !21
  %56 = load double, ptr %12, align 8, !tbaa !21
  %57 = load ptr, ptr %9, align 8, !tbaa !45
  %58 = load i32, ptr %11, align 4, !tbaa !14
  %59 = sext i32 %58 to i64
  %60 = getelementptr inbounds double, ptr %57, i64 %59
  %61 = load double, ptr %60, align 8, !tbaa !21
  %62 = call double @llvm.fmuladd.f64(double %55, double %56, double %61)
  %63 = fmul double %48, %62
  %64 = load ptr, ptr %9, align 8, !tbaa !45
  %65 = load i32, ptr %11, align 4, !tbaa !14
  %66 = sext i32 %65 to i64
  %67 = getelementptr inbounds double, ptr %64, i64 %66
  store double %63, ptr %67, align 8, !tbaa !21
  br label %68

68:                                               ; preds = %43
  %69 = load i32, ptr %11, align 4, !tbaa !14
  %70 = add nsw i32 %69, 1
  store i32 %70, ptr %11, align 4, !tbaa !14
  br label %40

71:                                               ; preds = %40
  call void @llvm.lifetime.end.p0(i64 8, ptr %13) #6
  call void @llvm.lifetime.end.p0(i64 8, ptr %12) #6
  call void @llvm.lifetime.end.p0(i64 4, ptr %11) #6
  ret void
}

; Function Attrs: nounwind uwtable
define internal i32 @func(ptr noundef %0, ptr noundef %1, ptr noundef %2) #0 {
  %4 = alloca ptr, align 8
  %5 = alloca ptr, align 8
  %6 = alloca ptr, align 8
  %7 = alloca double, align 8
  %8 = alloca double, align 8
  %9 = alloca double, align 8
  %10 = alloca double, align 8
  %11 = alloca ptr, align 8
  %12 = alloca ptr, align 8
  %13 = alloca ptr, align 8
  %14 = alloca double, align 8
  %15 = alloca double, align 8
  %16 = alloca double, align 8
  %17 = alloca double, align 8
  %18 = alloca i32, align 4
  %19 = alloca i32, align 4
  %20 = alloca i32, align 4
  %21 = alloca i32, align 4
  %22 = alloca i32, align 4
  %23 = alloca i32, align 4
  %24 = alloca i32, align 4
  %25 = alloca ptr, align 8
  store ptr %0, ptr %4, align 8, !tbaa !9
  store ptr %1, ptr %5, align 8, !tbaa !9
  store ptr %2, ptr %6, align 8, !tbaa !11
  call void @llvm.lifetime.start.p0(i64 8, ptr %7) #6
  call void @llvm.lifetime.start.p0(i64 8, ptr %8) #6
  call void @llvm.lifetime.start.p0(i64 8, ptr %9) #6
  call void @llvm.lifetime.start.p0(i64 8, ptr %10) #6
  call void @llvm.lifetime.start.p0(i64 8, ptr %11) #6
  call void @llvm.lifetime.start.p0(i64 8, ptr %12) #6
  call void @llvm.lifetime.start.p0(i64 8, ptr %13) #6
  call void @llvm.lifetime.start.p0(i64 8, ptr %14) #6
  call void @llvm.lifetime.start.p0(i64 8, ptr %15) #6
  call void @llvm.lifetime.start.p0(i64 8, ptr %16) #6
  call void @llvm.lifetime.start.p0(i64 8, ptr %17) #6
  call void @llvm.lifetime.start.p0(i64 4, ptr %18) #6
  call void @llvm.lifetime.start.p0(i64 4, ptr %19) #6
  call void @llvm.lifetime.start.p0(i64 4, ptr %20) #6
  call void @llvm.lifetime.start.p0(i64 4, ptr %21) #6
  call void @llvm.lifetime.start.p0(i64 4, ptr %22) #6
  call void @llvm.lifetime.start.p0(i64 4, ptr %23) #6
  call void @llvm.lifetime.start.p0(i64 4, ptr %24) #6
  call void @llvm.lifetime.start.p0(i64 8, ptr %25) #6
  %26 = load ptr, ptr %6, align 8, !tbaa !11
  store ptr %26, ptr %25, align 8, !tbaa !11
  %27 = load ptr, ptr %25, align 8, !tbaa !11
  %28 = getelementptr inbounds nuw %struct.anon, ptr %27, i32 0, i32 9
  %29 = load double, ptr %28, align 8, !tbaa !41
  store double %29, ptr %9, align 8, !tbaa !21
  %30 = load ptr, ptr %25, align 8, !tbaa !11
  %31 = getelementptr inbounds nuw %struct.anon, ptr %30, i32 0, i32 10
  %32 = load double, ptr %31, align 8, !tbaa !42
  store double %32, ptr %10, align 8, !tbaa !21
  store i32 0, ptr %19, align 4, !tbaa !14
  br label %33

33:                                               ; preds = %206, %3
  %34 = load i32, ptr %19, align 4, !tbaa !14
  %35 = icmp slt i32 %34, 5
  br i1 %35, label %36, label %209

36:                                               ; preds = %33
  %37 = load double, ptr %10, align 8, !tbaa !21
  %38 = load i32, ptr %19, align 4, !tbaa !14
  %39 = sitofp i32 %38 to double
  %40 = fmul double %37, %39
  store double %40, ptr %8, align 8, !tbaa !21
  %41 = load i32, ptr %19, align 4, !tbaa !14
  %42 = icmp ne i32 %41, 0
  %43 = select i1 %42, i32 30, i32 -30
  store i32 %43, ptr %22, align 4, !tbaa !14
  %44 = load i32, ptr %19, align 4, !tbaa !14
  %45 = icmp ne i32 %44, 4
  %46 = select i1 %45, i32 30, i32 -30
  store i32 %46, ptr %21, align 4, !tbaa !14
  store i32 0, ptr %18, align 4, !tbaa !14
  br label %47

47:                                               ; preds = %202, %36
  %48 = load i32, ptr %18, align 4, !tbaa !14
  %49 = icmp slt i32 %48, 5
  br i1 %49, label %50, label %205

50:                                               ; preds = %47
  %51 = load double, ptr %9, align 8, !tbaa !21
  %52 = load i32, ptr %18, align 4, !tbaa !14
  %53 = sitofp i32 %52 to double
  %54 = fmul double %51, %53
  store double %54, ptr %7, align 8, !tbaa !21
  %55 = load i32, ptr %18, align 4, !tbaa !14
  %56 = icmp ne i32 %55, 0
  %57 = select i1 %56, i32 6, i32 -6
  store i32 %57, ptr %24, align 4, !tbaa !14
  %58 = load i32, ptr %18, align 4, !tbaa !14
  %59 = icmp ne i32 %58, 4
  %60 = select i1 %59, i32 6, i32 -6
  store i32 %60, ptr %23, align 4, !tbaa !14
  %61 = load ptr, ptr %4, align 8, !tbaa !9
  %62 = getelementptr inbounds nuw %struct._generic_N_Vector, ptr %61, i32 0, i32 0
  %63 = load ptr, ptr %62, align 8, !tbaa !46
  %64 = getelementptr inbounds nuw %struct._N_VectorContent_Serial, ptr %63, i32 0, i32 2
  %65 = load ptr, ptr %64, align 8, !tbaa !49
  %66 = load i32, ptr %18, align 4, !tbaa !14
  %67 = mul nsw i32 %66, 6
  %68 = load i32, ptr %19, align 4, !tbaa !14
  %69 = mul nsw i32 %68, 30
  %70 = add nsw i32 %67, %69
  %71 = sext i32 %70 to i64
  %72 = getelementptr inbounds double, ptr %65, i64 %71
  store ptr %72, ptr %11, align 8, !tbaa !45
  %73 = load ptr, ptr %25, align 8, !tbaa !11
  %74 = getelementptr inbounds nuw %struct.anon, ptr %73, i32 0, i32 4
  %75 = load ptr, ptr %74, align 8, !tbaa !16
  %76 = getelementptr inbounds nuw %struct._generic_N_Vector, ptr %75, i32 0, i32 0
  %77 = load ptr, ptr %76, align 8, !tbaa !46
  %78 = getelementptr inbounds nuw %struct._N_VectorContent_Serial, ptr %77, i32 0, i32 2
  %79 = load ptr, ptr %78, align 8, !tbaa !49
  %80 = load i32, ptr %18, align 4, !tbaa !14
  %81 = mul nsw i32 %80, 6
  %82 = load i32, ptr %19, align 4, !tbaa !14
  %83 = mul nsw i32 %82, 30
  %84 = add nsw i32 %81, %83
  %85 = sext i32 %84 to i64
  %86 = getelementptr inbounds double, ptr %79, i64 %85
  store ptr %86, ptr %12, align 8, !tbaa !45
  %87 = load ptr, ptr %5, align 8, !tbaa !9
  %88 = getelementptr inbounds nuw %struct._generic_N_Vector, ptr %87, i32 0, i32 0
  %89 = load ptr, ptr %88, align 8, !tbaa !46
  %90 = getelementptr inbounds nuw %struct._N_VectorContent_Serial, ptr %89, i32 0, i32 2
  %91 = load ptr, ptr %90, align 8, !tbaa !49
  %92 = load i32, ptr %18, align 4, !tbaa !14
  %93 = mul nsw i32 %92, 6
  %94 = load i32, ptr %19, align 4, !tbaa !14
  %95 = mul nsw i32 %94, 30
  %96 = add nsw i32 %93, %95
  %97 = sext i32 %96 to i64
  %98 = getelementptr inbounds double, ptr %91, i64 %97
  store ptr %98, ptr %13, align 8, !tbaa !45
  %99 = load double, ptr %7, align 8, !tbaa !21
  %100 = load double, ptr %8, align 8, !tbaa !21
  %101 = load ptr, ptr %11, align 8, !tbaa !45
  %102 = load ptr, ptr %12, align 8, !tbaa !45
  %103 = load ptr, ptr %6, align 8, !tbaa !11
  call void @WebRate(double noundef %99, double noundef %100, ptr noundef %101, ptr noundef %102, ptr noundef %103)
  store i32 0, ptr %20, align 4, !tbaa !14
  br label %104

104:                                              ; preds = %198, %50
  %105 = load i32, ptr %20, align 4, !tbaa !14
  %106 = icmp slt i32 %105, 6
  br i1 %106, label %107, label %201

107:                                              ; preds = %104
  %108 = load ptr, ptr %11, align 8, !tbaa !45
  %109 = load i32, ptr %20, align 4, !tbaa !14
  %110 = sext i32 %109 to i64
  %111 = getelementptr inbounds double, ptr %108, i64 %110
  %112 = load double, ptr %111, align 8, !tbaa !21
  %113 = load ptr, ptr %11, align 8, !tbaa !45
  %114 = load i32, ptr %22, align 4, !tbaa !14
  %115 = sext i32 %114 to i64
  %116 = sub i64 0, %115
  %117 = getelementptr inbounds double, ptr %113, i64 %116
  %118 = load i32, ptr %20, align 4, !tbaa !14
  %119 = sext i32 %118 to i64
  %120 = getelementptr inbounds double, ptr %117, i64 %119
  %121 = load double, ptr %120, align 8, !tbaa !21
  %122 = fsub double %112, %121
  store double %122, ptr %14, align 8, !tbaa !21
  %123 = load ptr, ptr %11, align 8, !tbaa !45
  %124 = load i32, ptr %21, align 4, !tbaa !14
  %125 = sext i32 %124 to i64
  %126 = getelementptr inbounds double, ptr %123, i64 %125
  %127 = load i32, ptr %20, align 4, !tbaa !14
  %128 = sext i32 %127 to i64
  %129 = getelementptr inbounds double, ptr %126, i64 %128
  %130 = load double, ptr %129, align 8, !tbaa !21
  %131 = load ptr, ptr %11, align 8, !tbaa !45
  %132 = load i32, ptr %20, align 4, !tbaa !14
  %133 = sext i32 %132 to i64
  %134 = getelementptr inbounds double, ptr %131, i64 %133
  %135 = load double, ptr %134, align 8, !tbaa !21
  %136 = fsub double %130, %135
  store double %136, ptr %15, align 8, !tbaa !21
  %137 = load ptr, ptr %11, align 8, !tbaa !45
  %138 = load i32, ptr %20, align 4, !tbaa !14
  %139 = sext i32 %138 to i64
  %140 = getelementptr inbounds double, ptr %137, i64 %139
  %141 = load double, ptr %140, align 8, !tbaa !21
  %142 = load ptr, ptr %11, align 8, !tbaa !45
  %143 = load i32, ptr %24, align 4, !tbaa !14
  %144 = sext i32 %143 to i64
  %145 = sub i64 0, %144
  %146 = getelementptr inbounds double, ptr %142, i64 %145
  %147 = load i32, ptr %20, align 4, !tbaa !14
  %148 = sext i32 %147 to i64
  %149 = getelementptr inbounds double, ptr %146, i64 %148
  %150 = load double, ptr %149, align 8, !tbaa !21
  %151 = fsub double %141, %150
  store double %151, ptr %16, align 8, !tbaa !21
  %152 = load ptr, ptr %11, align 8, !tbaa !45
  %153 = load i32, ptr %23, align 4, !tbaa !14
  %154 = sext i32 %153 to i64
  %155 = getelementptr inbounds double, ptr %152, i64 %154
  %156 = load i32, ptr %20, align 4, !tbaa !14
  %157 = sext i32 %156 to i64
  %158 = getelementptr inbounds double, ptr %155, i64 %157
  %159 = load double, ptr %158, align 8, !tbaa !21
  %160 = load ptr, ptr %11, align 8, !tbaa !45
  %161 = load i32, ptr %20, align 4, !tbaa !14
  %162 = sext i32 %161 to i64
  %163 = getelementptr inbounds double, ptr %160, i64 %162
  %164 = load double, ptr %163, align 8, !tbaa !21
  %165 = fsub double %159, %164
  store double %165, ptr %17, align 8, !tbaa !21
  %166 = load ptr, ptr %25, align 8, !tbaa !11
  %167 = getelementptr inbounds nuw %struct.anon, ptr %166, i32 0, i32 6
  %168 = load ptr, ptr %167, align 8, !tbaa !28
  %169 = load i32, ptr %20, align 4, !tbaa !14
  %170 = sext i32 %169 to i64
  %171 = getelementptr inbounds double, ptr %168, i64 %170
  %172 = load double, ptr %171, align 8, !tbaa !21
  %173 = load double, ptr %15, align 8, !tbaa !21
  %174 = load double, ptr %14, align 8, !tbaa !21
  %175 = fsub double %173, %174
  %176 = load ptr, ptr %25, align 8, !tbaa !11
  %177 = getelementptr inbounds nuw %struct.anon, ptr %176, i32 0, i32 5
  %178 = load ptr, ptr %177, align 8, !tbaa !27
  %179 = load i32, ptr %20, align 4, !tbaa !14
  %180 = sext i32 %179 to i64
  %181 = getelementptr inbounds double, ptr %178, i64 %180
  %182 = load double, ptr %181, align 8, !tbaa !21
  %183 = load double, ptr %17, align 8, !tbaa !21
  %184 = load double, ptr %16, align 8, !tbaa !21
  %185 = fsub double %183, %184
  %186 = fmul double %182, %185
  %187 = call double @llvm.fmuladd.f64(double %172, double %175, double %186)
  %188 = load ptr, ptr %12, align 8, !tbaa !45
  %189 = load i32, ptr %20, align 4, !tbaa !14
  %190 = sext i32 %189 to i64
  %191 = getelementptr inbounds double, ptr %188, i64 %190
  %192 = load double, ptr %191, align 8, !tbaa !21
  %193 = fadd double %187, %192
  %194 = load ptr, ptr %13, align 8, !tbaa !45
  %195 = load i32, ptr %20, align 4, !tbaa !14
  %196 = sext i32 %195 to i64
  %197 = getelementptr inbounds double, ptr %194, i64 %196
  store double %193, ptr %197, align 8, !tbaa !21
  br label %198

198:                                              ; preds = %107
  %199 = load i32, ptr %20, align 4, !tbaa !14
  %200 = add nsw i32 %199, 1
  store i32 %200, ptr %20, align 4, !tbaa !14
  br label %104

201:                                              ; preds = %104
  br label %202

202:                                              ; preds = %201
  %203 = load i32, ptr %18, align 4, !tbaa !14
  %204 = add nsw i32 %203, 1
  store i32 %204, ptr %18, align 4, !tbaa !14
  br label %47

205:                                              ; preds = %47
  br label %206

206:                                              ; preds = %205
  %207 = load i32, ptr %19, align 4, !tbaa !14
  %208 = add nsw i32 %207, 1
  store i32 %208, ptr %19, align 4, !tbaa !14
  br label %33

209:                                              ; preds = %33
  call void @llvm.lifetime.end.p0(i64 8, ptr %25) #6
  call void @llvm.lifetime.end.p0(i64 4, ptr %24) #6
  call void @llvm.lifetime.end.p0(i64 4, ptr %23) #6
  call void @llvm.lifetime.end.p0(i64 4, ptr %22) #6
  call void @llvm.lifetime.end.p0(i64 4, ptr %21) #6
  call void @llvm.lifetime.end.p0(i64 4, ptr %20) #6
  call void @llvm.lifetime.end.p0(i64 4, ptr %19) #6
  call void @llvm.lifetime.end.p0(i64 4, ptr %18) #6
  call void @llvm.lifetime.end.p0(i64 8, ptr %17) #6
  call void @llvm.lifetime.end.p0(i64 8, ptr %16) #6
  call void @llvm.lifetime.end.p0(i64 8, ptr %15) #6
  call void @llvm.lifetime.end.p0(i64 8, ptr %14) #6
  call void @llvm.lifetime.end.p0(i64 8, ptr %13) #6
  call void @llvm.lifetime.end.p0(i64 8, ptr %12) #6
  call void @llvm.lifetime.end.p0(i64 8, ptr %11) #6
  call void @llvm.lifetime.end.p0(i64 8, ptr %10) #6
  call void @llvm.lifetime.end.p0(i64 8, ptr %9) #6
  call void @llvm.lifetime.end.p0(i64 8, ptr %8) #6
  call void @llvm.lifetime.end.p0(i64 8, ptr %7) #6
  ret i32 0
}