; Function Attrs: nofree norecurse nosync nounwind memory(readwrite, inaccessiblemem: none) uwtable
define internal noundef i32 @func(ptr noundef readonly captures(none) %0, ptr noundef readonly captures(none) %1, ptr noundef readonly captures(none) %2) #3 {
  %4 = getelementptr inbounds nuw i8, ptr %2, i64 456
  %5 = load double, ptr %4, align 8, !tbaa !29
  %6 = getelementptr inbounds nuw i8, ptr %2, i64 464
  %7 = load double, ptr %6, align 8, !tbaa !30
  %8 = load ptr, ptr %0, align 8, !tbaa !38
  %9 = getelementptr inbounds nuw i8, ptr %8, i64 16
  %10 = load ptr, ptr %9, align 8, !tbaa !41
  %11 = getelementptr inbounds nuw i8, ptr %2, i64 416
  %12 = load ptr, ptr %11, align 8, !tbaa !37
  %13 = load ptr, ptr %12, align 8, !tbaa !38
  %14 = getelementptr inbounds nuw i8, ptr %13, i64 16
  %15 = load ptr, ptr %14, align 8, !tbaa !41
  %16 = load ptr, ptr %1, align 8, !tbaa !38
  %17 = getelementptr inbounds nuw i8, ptr %16, i64 16
  %18 = load ptr, ptr %17, align 8, !tbaa !41
  %19 = getelementptr inbounds nuw i8, ptr %2, i64 400
  %20 = load ptr, ptr %19, align 8, !tbaa !14
  %21 = getelementptr inbounds nuw i8, ptr %2, i64 408
  %22 = load ptr, ptr %21, align 8, !tbaa !20
  %23 = getelementptr inbounds nuw i8, ptr %2, i64 432
  %24 = load ptr, ptr %23, align 8, !tbaa !22
  %25 = getelementptr inbounds nuw i8, ptr %2, i64 424
  %26 = load ptr, ptr %25, align 8, !tbaa !21
  br label %27

27:                                               ; preds = %3, %96
  %indvars.iv76 = phi i64 [ 0, %3 ], [ %indvars.iv.next77, %96 ]
  %28 = trunc nuw nsw i64 %indvars.iv76 to i32
  %29 = uitofp nneg i32 %28 to double
  %30 = fmul double %7, %29
  %.not = icmp eq i64 %indvars.iv76, 0
  %.neg = select i1 %.not, i64 30, i64 -30
  %.not64 = icmp eq i64 %indvars.iv76, 4
  %31 = select i1 %.not64, i64 -30, i64 30
  %32 = mul nuw nsw i64 %indvars.iv76, 30
  br label %33

33:                                               ; preds = %27, %95
  %indvars.iv72 = phi i64 [ 0, %27 ], [ %indvars.iv.next73, %95 ]
  %34 = trunc nuw nsw i64 %indvars.iv72 to i32
  %35 = uitofp nneg i32 %34 to double
  %.not65 = icmp eq i64 %indvars.iv72, 0
  %.not66 = icmp eq i64 %indvars.iv72, 4
  %36 = mul nuw nsw i64 %indvars.iv72, 6
  %37 = add nuw nsw i64 %36, %32
  %38 = getelementptr inbounds nuw double, ptr %10, i64 %37
  %39 = getelementptr inbounds nuw double, ptr %15, i64 %37
  br label %40

40:                                               ; preds = %DotProd.exit.i, %33
  %indvars.iv.i = phi i64 [ 0, %33 ], [ %indvars.iv.next.i, %DotProd.exit.i ]
  %41 = getelementptr inbounds nuw ptr, ptr %20, i64 %indvars.iv.i
  %42 = load ptr, ptr %41, align 8, !tbaa !33
  br label %43

43:                                               ; preds = %43, %40
  %.014.i.i = phi double [ 0.000000e+00, %40 ], [ %48, %43 ]
  %.0813.i.i = phi ptr [ %42, %40 ], [ %46, %43 ]
  %.0912.i.i = phi ptr [ %38, %40 ], [ %44, %43 ]
  %.01011.i.i = phi i32 [ 0, %40 ], [ %49, %43 ]
  %44 = getelementptr inbounds nuw i8, ptr %.0912.i.i, i64 8
  %45 = load double, ptr %.0912.i.i, align 8, !tbaa !34
  %46 = getelementptr inbounds nuw i8, ptr %.0813.i.i, i64 8
  %47 = load double, ptr %.0813.i.i, align 8, !tbaa !34
  %48 = tail call double @llvm.fmuladd.f64(double %45, double %47, double %.014.i.i)
  %49 = add nuw nsw i32 %.01011.i.i, 1
  %exitcond.not.i.i = icmp eq i32 %49, 6
  br i1 %exitcond.not.i.i, label %DotProd.exit.i, label %43

DotProd.exit.i:                                   ; preds = %43
  %50 = getelementptr inbounds nuw double, ptr %39, i64 %indvars.iv.i
  store double %48, ptr %50, align 8, !tbaa !34
  %indvars.iv.next.i = add nuw nsw i64 %indvars.iv.i, 1
  %exitcond.not.i = icmp eq i64 %indvars.iv.next.i, 6
  br i1 %exitcond.not.i, label %51, label %40

51:                                               ; preds = %DotProd.exit.i
  %52 = fmul double %5, %35
  %53 = select i1 %.not66, i64 -6, i64 6
  %54 = tail call double @llvm.fmuladd.f64(double %52, double %30, double 1.000000e+00)
  br label %55

55:                                               ; preds = %55, %51
  %indvars.iv23.i = phi i64 [ 0, %51 ], [ %indvars.iv.next24.i, %55 ]
  %56 = getelementptr inbounds nuw double, ptr %38, i64 %indvars.iv23.i
  %57 = load double, ptr %56, align 8, !tbaa !34
  %58 = getelementptr inbounds nuw double, ptr %22, i64 %indvars.iv23.i
  %59 = load double, ptr %58, align 8, !tbaa !34
  %60 = getelementptr inbounds nuw double, ptr %39, i64 %indvars.iv23.i
  %61 = load double, ptr %60, align 8, !tbaa !34
  %62 = tail call double @llvm.fmuladd.f64(double %59, double %54, double %61)
  %63 = fmul double %57, %62
  store double %63, ptr %60, align 8, !tbaa !34
  %indvars.iv.next24.i = add nuw nsw i64 %indvars.iv23.i, 1
  %exitcond26.not.i = icmp eq i64 %indvars.iv.next24.i, 6
  br i1 %exitcond26.not.i, label %WebRate.exit.preheader, label %55

WebRate.exit.preheader:                           ; preds = %55
  %.neg67 = select i1 %.not65, i64 6, i64 -6
  %64 = getelementptr inbounds nuw double, ptr %18, i64 %37
  %65 = getelementptr inbounds double, ptr %38, i64 %.neg
  %66 = getelementptr inbounds double, ptr %38, i64 %31
  %67 = getelementptr inbounds double, ptr %38, i64 %.neg67
  %68 = getelementptr inbounds double, ptr %38, i64 %53
  br label %WebRate.exit

WebRate.exit:                                     ; preds = %WebRate.exit.preheader, %WebRate.exit
  %indvars.iv = phi i64 [ 0, %WebRate.exit.preheader ], [ %indvars.iv.next, %WebRate.exit ]
  %69 = getelementptr inbounds nuw double, ptr %38, i64 %indvars.iv
  %70 = load double, ptr %69, align 8, !tbaa !34
  %71 = getelementptr inbounds nuw double, ptr %65, i64 %indvars.iv
  %72 = load double, ptr %71, align 8, !tbaa !34
  %73 = fsub double %70, %72
  %74 = getelementptr inbounds nuw double, ptr %66, i64 %indvars.iv
  %75 = load double, ptr %74, align 8, !tbaa !34
  %76 = fsub double %75, %70
  %77 = getelementptr inbounds nuw double, ptr %67, i64 %indvars.iv
  %78 = load double, ptr %77, align 8, !tbaa !34
  %79 = fsub double %70, %78
  %80 = getelementptr inbounds nuw double, ptr %68, i64 %indvars.iv
  %81 = load double, ptr %80, align 8, !tbaa !34
  %82 = fsub double %81, %70
  %83 = getelementptr inbounds nuw double, ptr %24, i64 %indvars.iv
  %84 = load double, ptr %83, align 8, !tbaa !34
  %85 = fsub double %76, %73
  %86 = getelementptr inbounds nuw double, ptr %26, i64 %indvars.iv
  %87 = load double, ptr %86, align 8, !tbaa !34
  %88 = fsub double %82, %79
  %89 = fmul double %88, %87
  %90 = tail call double @llvm.fmuladd.f64(double %84, double %85, double %89)
  %91 = getelementptr inbounds nuw double, ptr %39, i64 %indvars.iv
  %92 = load double, ptr %91, align 8, !tbaa !34
  %93 = fadd double %92, %90
  %94 = getelementptr inbounds nuw double, ptr %64, i64 %indvars.iv
  store double %93, ptr %94, align 8, !tbaa !34
  %indvars.iv.next = add nuw nsw i64 %indvars.iv, 1
  %exitcond.not = icmp eq i64 %indvars.iv.next, 6
  br i1 %exitcond.not, label %95, label %WebRate.exit

95:                                               ; preds = %WebRate.exit
  %indvars.iv.next73 = add nuw nsw i64 %indvars.iv72, 1
  %exitcond75.not = icmp eq i64 %indvars.iv.next73, 5
  br i1 %exitcond75.not, label %96, label %33

96:                                               ; preds = %95
  %indvars.iv.next77 = add nuw nsw i64 %indvars.iv76, 1
  %exitcond79.not = icmp eq i64 %indvars.iv.next77, 5
  br i1 %exitcond79.not, label %97, label %27

97:                                               ; preds = %96
  ret i32 0
}